; Function Attrs: nounwind uwtable
define range(i32 -48, 1) i32 @ARKodeSetLinSysFn(ptr noundef %0, ptr noundef %1) local_unnamed_addr #0 {
  %3 = icmp eq ptr %0, null
  br i1 %3, label %4, label %5

4:                                                ; preds = %2
  tail call void (ptr, i32, i32, ptr, ptr, ptr, ...) @arkProcessError(ptr noundef null, i32 noundef -21, i32 noundef 1014, ptr noundef nonnull @__func__.ARKodeSetLinSysFn, ptr noundef nonnull @.str, ptr noundef nonnull @.str.1) #13
  br label %29

5:                                                ; preds = %2
  %6 = getelementptr inbounds nuw i8, ptr %0, i64 296
  %7 = load i32, ptr %6, align 8, !tbaa !3
  %.not = icmp eq i32 %7, 0
  br i1 %.not, label %8, label %9

8:                                                ; preds = %5
  tail call void (ptr, i32, i32, ptr, ptr, ptr, ...) @arkProcessError(ptr noundef nonnull %0, i32 noundef -48, i32 noundef 1023, ptr noundef nonnull @__func__.ARKodeSetLinSysFn, ptr noundef nonnull @.str, ptr noundef nonnull @.str.2) #13
  br label %29

9:                                                ; preds = %5
  %10 = getelementptr inbounds nuw i8, ptr %0, i64 320
  %11 = load ptr, ptr %10, align 8, !tbaa !33
  %12 = tail call ptr %11(ptr noundef nonnull %0) #13
  %13 = icmp eq ptr %12, null
  br i1 %13, label %arkLs_AccessLMem.exit, label %14

arkLs_AccessLMem.exit:                            ; preds = %9
  tail call void (ptr, i32, i32, ptr, ptr, ptr, ...) @arkProcessError(ptr noundef nonnull %0, i32 noundef -2, i32 noundef 4072, ptr noundef nonnull @__func__.ARKodeSetLinSysFn, ptr noundef nonnull @.str, ptr noundef nonnull @.str.64) #13
  br label %29

14:                                               ; preds = %9
  %.not17 = icmp eq ptr %1, null
  br i1 %.not17, label %.critedge, label %15

15:                                               ; preds = %14
  %16 = getelementptr inbounds nuw i8, ptr %12, i64 64
  %17 = load ptr, ptr %16, align 8, !tbaa !60
  %18 = icmp eq ptr %17, null
  br i1 %18, label %19, label %20

19:                                               ; preds = %15
  tail call void (ptr, i32, i32, ptr, ptr, ptr, ...) @arkProcessError(ptr noundef nonnull %0, i32 noundef -3, i32 noundef 1035, ptr noundef nonnull @__func__.ARKodeSetLinSysFn, ptr noundef nonnull @.str, ptr noundef nonnull @.str.23) #13
  br label %29

20:                                               ; preds = %15
  %21 = getelementptr inbounds nuw i8, ptr %12, i64 280
  store i32 1, ptr %21, align 8, !tbaa !50
  %22 = getelementptr inbounds nuw i8, ptr %12, i64 288
  store ptr %1, ptr %22, align 8, !tbaa !51
  %23 = getelementptr inbounds nuw i8, ptr %0, i64 16
  %24 = load ptr, ptr %23, align 8, !tbaa !53
  %25 = getelementptr inbounds nuw i8, ptr %12, i64 296
  store ptr %24, ptr %25, align 8, !tbaa !52
  br label %29

.critedge:                                        ; preds = %14
  %26 = getelementptr inbounds nuw i8, ptr %12, i64 280
  store i32 0, ptr %26, align 8, !tbaa !50
  %27 = getelementptr inbounds nuw i8, ptr %12, i64 288
  store ptr @arkLsLinSys, ptr %27, align 8, !tbaa !51
  %28 = getelementptr inbounds nuw i8, ptr %12, i64 296
  store ptr %0, ptr %28, align 8, !tbaa !52
  br label %29

29:                                               ; preds = %arkLs_AccessLMem.exit, %20, %.critedge, %19, %8, %4
  %.0 = phi i32 [ -21, %4 ], [ -3, %19 ], [ -48, %8 ], [ -2, %arkLs_AccessLMem.exit ], [ 0, %.critedge ], [ 0, %20 ]
  ret i32 %.0
}